; Function Attrs: mustprogress noreturn uwtable
define void @_ZN3nix23throwExceptionSelfCheckEv() local_unnamed_addr #6 personality ptr @__gxx_personality_v0 {
  %1 = tail call ptr @__cxa_allocate_exception(i64 384) #24
  invoke void @_ZN3nix8SysErrorC2IJA127_cEEEDpRKT_(ptr noundef nonnull align 8 dereferenceable(380) %1, ptr noundef nonnull align 1 dereferenceable(127) @.str)
          to label %2 unwind label %3

2:                                                ; preds = %0
  tail call void @__cxa_throw(ptr nonnull %1, ptr nonnull @_ZTIN3nix8SysErrorE, ptr nonnull @_ZN3nix8SysErrorD2Ev) #27
  unreachable

3:                                                ; preds = %0
  %4 = landingpad { ptr, i32 }
          cleanup
  tail call void @__cxa_free_exception(ptr %1) #24
  resume { ptr, i32 } %4
}